target datalayout = "e-m:e-p270:32:32-p271:32:32-p272:64:64-i64:64-i128:128-f80:128-n8:16:32:64-S128"
target triple = "x86_64-pc-linux-gnu"

%struct.Ivy_Store_t_ = type { i32, i32, i32, i32, [256 x %struct.Ivy_Cut_t_] }
%struct.Ivy_Cut_t_ = type { i32, i16, i16, [6 x i32], i32 }
%struct.Ivy_Man_t_ = type { ptr, ptr, ptr, ptr, ptr, %struct.Ivy_Obj_t_, [8 x i32], i32, i32, ptr, i32, i32, i32, i32, ptr, i32, ptr, ptr, ptr, i32, ptr, ptr, ptr, i64, i64 }
%struct.Ivy_Obj_t_ = type { i32, i32, i32, i32, ptr, ptr, ptr, ptr, ptr, ptr, ptr, ptr }
%struct.Vec_Ptr_t_ = type { i32, i32, ptr }
%struct.timespec = type { i64, i64 }

@.str.10 = private unnamed_addr constant [63 x i8] c"Total cuts = %6d. Trivial = %6d.   Nodes = %6d. Satur = %6d.  \00", align 1
@.str.11 = private unnamed_addr constant [5 x i8] c"%s =\00", align 1
@.str.12 = private unnamed_addr constant [5 x i8] c"Time\00", align 1
@.str.13 = private unnamed_addr constant [11 x i8] c"%9.2f sec\0A\00", align 1

; Function Attrs: nounwind uwtable
define internal i32 @Ivy_ManPiNum(ptr noundef %0) #0 {
  %2 = alloca ptr, align 8
  store ptr %0, ptr %2, align 8
  %3 = load ptr, ptr %2, align 8
  %4 = getelementptr inbounds %struct.Ivy_Man_t_, ptr %3, i32 0, i32 6
  %5 = getelementptr inbounds [8 x i32], ptr %4, i64 0, i64 1
  %6 = load i32, ptr %5, align 4
  ret i32 %6
}

; Function Attrs: nounwind uwtable
define internal i32 @Ivy_ObjIsNode(ptr noundef %0) #0 {
  %2 = alloca ptr, align 8
  store ptr %0, ptr %2, align 8
  %3 = load ptr, ptr %2, align 8
  %4 = getelementptr inbounds %struct.Ivy_Obj_t_, ptr %3, i32 0, i32 2
  %5 = load i32, ptr %4, align 8
  %6 = and i32 %5, 15
  %7 = icmp eq i32 %6, 5
  br i1 %7, label %14, label %8

8:                                                ; preds = %1
  %9 = load ptr, ptr %2, align 8
  %10 = getelementptr inbounds %struct.Ivy_Obj_t_, ptr %9, i32 0, i32 2
  %11 = load i32, ptr %10, align 8
  %12 = and i32 %11, 15
  %13 = icmp eq i32 %12, 6
  br label %14

14:                                               ; preds = %8, %1
  %15 = phi i1 [ true, %1 ], [ %13, %8 ]
  %16 = zext i1 %15 to i32
  ret i32 %16
}

; Function Attrs: nounwind uwtable
define internal ptr @Vec_PtrEntry(ptr noundef %0, i32 noundef %1) #0 {
  %3 = alloca ptr, align 8
  %4 = alloca i32, align 4
  store ptr %0, ptr %3, align 8
  store i32 %1, ptr %4, align 4
  %5 = load ptr, ptr %3, align 8
  %6 = getelementptr inbounds %struct.Vec_Ptr_t_, ptr %5, i32 0, i32 2
  %7 = load ptr, ptr %6, align 8
  %8 = load i32, ptr %4, align 4
  %9 = sext i32 %8 to i64
  %10 = getelementptr inbounds ptr, ptr %7, i64 %9
  %11 = load ptr, ptr %10, align 8
  ret ptr %11
}

; Function Attrs: nounwind uwtable
define internal i32 @Vec_PtrSize(ptr noundef %0) #0 {
  %2 = alloca ptr, align 8
  store ptr %0, ptr %2, align 8
  %3 = load ptr, ptr %2, align 8
  %4 = getelementptr inbounds %struct.Vec_Ptr_t_, ptr %3, i32 0, i32 1
  %5 = load i32, ptr %4, align 4
  ret i32 %5
}

; Function Attrs: nounwind uwtable
define internal i32 @Ivy_ManNodeNum(ptr noundef %0) #0 {
  %2 = alloca ptr, align 8
  store ptr %0, ptr %2, align 8
  %3 = load ptr, ptr %2, align 8
  %4 = getelementptr inbounds %struct.Ivy_Man_t_, ptr %3, i32 0, i32 6
  %5 = getelementptr inbounds [8 x i32], ptr %4, i64 0, i64 5
  %6 = load i32, ptr %5, align 4
  %7 = load ptr, ptr %2, align 8
  %8 = getelementptr inbounds %struct.Ivy_Man_t_, ptr %7, i32 0, i32 6
  %9 = getelementptr inbounds [8 x i32], ptr %8, i64 0, i64 6
  %10 = load i32, ptr %9, align 8
  %11 = add nsw i32 %6, %10
  ret i32 %11
}

; Function Attrs: nounwind uwtable
define internal i64 @Abc_Clock() #0 {
  %1 = alloca i64, align 8
  %2 = alloca %struct.timespec, align 8
  %3 = alloca i64, align 8
  %4 = call i32 @clock_gettime(i32 noundef 1, ptr noundef %2) #8
  %5 = icmp slt i32 %4, 0
  br i1 %5, label %6, label %7

6:                                                ; preds = %0
  store i64 -1, ptr %1, align 8
  br label %18

7:                                                ; preds = %0
  %8 = getelementptr inbounds %struct.timespec, ptr %2, i32 0, i32 0
  %9 = load i64, ptr %8, align 8
  %10 = mul nsw i64 %9, 1000000
  store i64 %10, ptr %3, align 8
  %11 = getelementptr inbounds %struct.timespec, ptr %2, i32 0, i32 1
  %12 = load i64, ptr %11, align 8
  %13 = mul nsw i64 %12, 1000000
  %14 = sdiv i64 %13, 1000000000
  %15 = load i64, ptr %3, align 8
  %16 = add nsw i64 %15, %14
  store i64 %16, ptr %3, align 8
  %17 = load i64, ptr %3, align 8
  store i64 %17, ptr %1, align 8
  br label %18

18:                                               ; preds = %7, %6
  %19 = load i64, ptr %1, align 8
  ret i64 %19
}

; Function Attrs: nounwind uwtable
define void @Ivy_ManTestCutsAll(ptr noundef %0) #0 {
  %2 = alloca ptr, align 8
  %3 = alloca ptr, align 8
  %4 = alloca i32, align 4
  %5 = alloca i32, align 4
  %6 = alloca i32, align 4
  %7 = alloca i32, align 4
  %8 = alloca i32, align 4
  %9 = alloca i64, align 8
  store ptr %0, ptr %2, align 8
  %10 = call i64 @Abc_Clock()
  store i64 %10, ptr %9, align 8
  store i32 0, ptr %8, align 4
  store i32 0, ptr %7, align 4
  %11 = load ptr, ptr %2, align 8
  %12 = call i32 @Ivy_ManNodeNum(ptr noundef %11)
  %13 = sub nsw i32 0, %12
  store i32 %13, ptr %6, align 4
  store i32 0, ptr %4, align 4
  br label %14

14:                                               ; preds = %55, %1
  %15 = load i32, ptr %4, align 4
  %16 = load ptr, ptr %2, align 8
  %17 = getelementptr inbounds %struct.Ivy_Man_t_, ptr %16, i32 0, i32 3
  %18 = load ptr, ptr %17, align 8
  %19 = call i32 @Vec_PtrSize(ptr noundef %18)
  %20 = icmp slt i32 %15, %19
  br i1 %20, label %21, label %27

21:                                               ; preds = %14
  %22 = load ptr, ptr %2, align 8
  %23 = getelementptr inbounds %struct.Ivy_Man_t_, ptr %22, i32 0, i32 3
  %24 = load ptr, ptr %23, align 8
  %25 = load i32, ptr %4, align 4
  %26 = call ptr @Vec_PtrEntry(ptr noundef %24, i32 noundef %25)
  store ptr %26, ptr %3, align 8
  br label %27

27:                                               ; preds = %21, %14
  %28 = phi i1 [ false, %14 ], [ true, %21 ]
  br i1 %28, label %29, label %58

29:                                               ; preds = %27
  %30 = load ptr, ptr %3, align 8
  %31 = icmp eq ptr %30, null
  br i1 %31, label %32, label %33

32:                                               ; preds = %29
  br label %54

33:                                               ; preds = %29
  %34 = load ptr, ptr %3, align 8
  %35 = call i32 @Ivy_ObjIsNode(ptr noundef %34)
  %36 = icmp ne i32 %35, 0
  br i1 %36, label %38, label %37

37:                                               ; preds = %33
  br label %55

38:                                               ; preds = %33
  %39 = load ptr, ptr %2, align 8
  %40 = load ptr, ptr %3, align 8
  %41 = call ptr @Ivy_NodeFindCutsAll(ptr noundef %39, ptr noundef %40, i32 noundef 5)
  %42 = getelementptr inbounds %struct.Ivy_Store_t_, ptr %41, i32 0, i32 0
  %43 = load i32, ptr %42, align 4
  store i32 %43, ptr %5, align 4
  %44 = load i32, ptr %5, align 4
  %45 = load i32, ptr %6, align 4
  %46 = add nsw i32 %45, %44
  store i32 %46, ptr %6, align 4
  %47 = load i32, ptr %5, align 4
  %48 = icmp eq i32 %47, 256
  %49 = zext i1 %48 to i32
  %50 = load i32, ptr %8, align 4
  %51 = add nsw i32 %50, %49
  store i32 %51, ptr %8, align 4
  %52 = load i32, ptr %7, align 4
  %53 = add nsw i32 %52, 1
  store i32 %53, ptr %7, align 4
  br label %54

54:                                               ; preds = %38, %32
  br label %55

55:                                               ; preds = %54, %37
  %56 = load i32, ptr %4, align 4
  %57 = add nsw i32 %56, 1
  store i32 %57, ptr %4, align 4
  br label %14, !llvm.loop !36

58:                                               ; preds = %27
  %59 = load i32, ptr %6, align 4
  %60 = load ptr, ptr %2, align 8
  %61 = call i32 @Ivy_ManPiNum(ptr noundef %60)
  %62 = load ptr, ptr %2, align 8
  %63 = call i32 @Ivy_ManNodeNum(ptr noundef %62)
  %64 = add nsw i32 %61, %63
  %65 = load i32, ptr %7, align 4
  %66 = load i32, ptr %8, align 4
  %67 = call i32 (ptr, ...) @printf(ptr noundef @.str.10, i32 noundef %59, i32 noundef %64, i32 noundef %65, i32 noundef %66)
  call void (i32, ptr, ...) @Abc_Print(i32 noundef 1, ptr noundef @.str.11, ptr noundef @.str.12)
  %68 = call i64 @Abc_Clock()
  %69 = load i64, ptr %9, align 8
  %70 = sub nsw i64 %68, %69
  %71 = sitofp i64 %70 to double
  %72 = fmul double 1.000000e+00, %71
  %73 = fdiv double %72, 1.000000e+06
  call void (i32, ptr, ...) @Abc_Print(i32 noundef 1, ptr noundef @.str.13, double noundef %73)
  ret void
}