; Function Attrs: nounwind uwtable
define void @Ivy_ManTestCutsAll(ptr noundef readonly captures(none) %0) local_unnamed_addr #0 {
  %2 = alloca %struct.timespec, align 8
  %3 = alloca %struct.timespec, align 8
  call void @llvm.lifetime.start.p0(i64 16, ptr nonnull %3)
  %4 = call i32 @clock_gettime(i32 noundef 1, ptr noundef nonnull %3) #18
  %5 = icmp slt i32 %4, 0
  br i1 %5, label %Abc_Clock.exit, label %6

6:                                                ; preds = %1
  %7 = load i64, ptr %3, align 8
  %.neg35 = mul i64 %7, -1000000
  %8 = getelementptr inbounds nuw i8, ptr %3, i64 8
  %9 = load i64, ptr %8, align 8
  %.neg = sdiv i64 %9, -1000
  %.neg36 = add i64 %.neg, %.neg35
  br label %Abc_Clock.exit

Abc_Clock.exit:                                   ; preds = %1, %6
  %.0.i.neg = phi i64 [ %.neg36, %6 ], [ 1, %1 ]
  call void @llvm.lifetime.end.p0(i64 16, ptr nonnull %3)
  %10 = getelementptr i8, ptr %0, i64 140
  %.val28 = load i32, ptr %10, align 4
  %11 = getelementptr i8, ptr %0, i64 144
  %.val29 = load i32, ptr %11, align 8
  %12 = add nsw i32 %.val28, %.val29
  %13 = sub nsw i32 0, %12
  %14 = getelementptr inbounds nuw i8, ptr %0, i64 24
  %15 = load ptr, ptr %14, align 8
  %16 = getelementptr i8, ptr %15, i64 4
  %.val2637 = load i32, ptr %16, align 4
  %17 = icmp sgt i32 %.val2637, 0
  br i1 %17, label %.lr.ph, label %.critedge

.lr.ph:                                           ; preds = %Abc_Clock.exit, %35
  %18 = phi ptr [ %36, %35 ], [ %15, %Abc_Clock.exit ]
  %indvars.iv = phi i64 [ %indvars.iv.next, %35 ], [ 0, %Abc_Clock.exit ]
  %.02040 = phi i32 [ %.1, %35 ], [ 0, %Abc_Clock.exit ]
  %.02139 = phi i32 [ %.122, %35 ], [ 0, %Abc_Clock.exit ]
  %.02338 = phi i32 [ %.124, %35 ], [ %13, %Abc_Clock.exit ]
  %19 = getelementptr i8, ptr %18, i64 8
  %.val = load ptr, ptr %19, align 8
  %20 = getelementptr inbounds nuw ptr, ptr %.val, i64 %indvars.iv
  %21 = load ptr, ptr %20, align 8
  %22 = icmp eq ptr %21, null
  br i1 %22, label %35, label %23

23:                                               ; preds = %.lr.ph
  %24 = getelementptr i8, ptr %21, i64 8
  %.val27 = load i32, ptr %24, align 8
  %25 = and i32 %.val27, 15
  %26 = add nsw i32 %25, -7
  %narrow.i = icmp ult i32 %26, -2
  br i1 %narrow.i, label %35, label %27

27:                                               ; preds = %23
  %28 = call ptr @Ivy_NodeFindCutsAll(ptr noundef nonnull %0, ptr noundef nonnull %21, i32 noundef 5)
  %29 = load i32, ptr @Ivy_NodeFindCutsAll.CutStore, align 4
  %30 = add nsw i32 %29, %.02338
  %31 = icmp eq i32 %29, 256
  %32 = zext i1 %31 to i32
  %33 = add nsw i32 %.02040, %32
  %34 = add nsw i32 %.02139, 1
  %.pre = load ptr, ptr %14, align 8
  br label %35

35:                                               ; preds = %27, %.lr.ph, %23
  %36 = phi ptr [ %18, %.lr.ph ], [ %.pre, %27 ], [ %18, %23 ]
  %.124 = phi i32 [ %.02338, %.lr.ph ], [ %30, %27 ], [ %.02338, %23 ]
  %.122 = phi i32 [ %.02139, %.lr.ph ], [ %34, %27 ], [ %.02139, %23 ]
  %.1 = phi i32 [ %.02040, %.lr.ph ], [ %33, %27 ], [ %.02040, %23 ]
  %indvars.iv.next = add nuw nsw i64 %indvars.iv, 1
  %37 = getelementptr i8, ptr %36, i64 4
  %.val26 = load i32, ptr %37, align 4
  %38 = sext i32 %.val26 to i64
  %39 = icmp slt i64 %indvars.iv.next, %38
  br i1 %39, label %.lr.ph, label %.critedge.loopexit, !llvm.loop !35

.critedge.loopexit:                               ; preds = %35
  %.val30.pre = load i32, ptr %10, align 4
  %.val31.pre = load i32, ptr %11, align 8
  br label %.critedge

.critedge:                                        ; preds = %.critedge.loopexit, %Abc_Clock.exit
  %.val31 = phi i32 [ %.val29, %Abc_Clock.exit ], [ %.val31.pre, %.critedge.loopexit ]
  %.val30 = phi i32 [ %.val28, %Abc_Clock.exit ], [ %.val30.pre, %.critedge.loopexit ]
  %.023.lcssa = phi i32 [ %13, %Abc_Clock.exit ], [ %.124, %.critedge.loopexit ]
  %.021.lcssa = phi i32 [ 0, %Abc_Clock.exit ], [ %.122, %.critedge.loopexit ]
  %.020.lcssa = phi i32 [ 0, %Abc_Clock.exit ], [ %.1, %.critedge.loopexit ]
  %40 = getelementptr i8, ptr %0, i64 124
  %.val32 = load i32, ptr %40, align 4
  %41 = add i32 %.val30, %.val32
  %42 = add i32 %41, %.val31
  %43 = call i32 (ptr, ...) @printf(ptr noundef nonnull dereferenceable(1) @.str.10, i32 noundef %.023.lcssa, i32 noundef %42, i32 noundef %.021.lcssa, i32 noundef %.020.lcssa)
  call void (i32, ptr, ...) @Abc_Print(i32 poison, ptr noundef nonnull @.str.11, ptr noundef nonnull @.str.12)
  call void @llvm.lifetime.start.p0(i64 16, ptr nonnull %2)
  %44 = call i32 @clock_gettime(i32 noundef 1, ptr noundef nonnull %2) #18
  %45 = icmp slt i32 %44, 0
  br i1 %45, label %Abc_Clock.exit34, label %46

46:                                               ; preds = %.critedge
  %47 = load i64, ptr %2, align 8
  %48 = mul nsw i64 %47, 1000000
  %49 = getelementptr inbounds nuw i8, ptr %2, i64 8
  %50 = load i64, ptr %49, align 8
  %51 = sdiv i64 %50, 1000
  %52 = add nsw i64 %51, %48
  br label %Abc_Clock.exit34

Abc_Clock.exit34:                                 ; preds = %.critedge, %46
  %.0.i33 = phi i64 [ %52, %46 ], [ -1, %.critedge ]
  call void @llvm.lifetime.end.p0(i64 16, ptr nonnull %2)
  %53 = add i64 %.0.i33, %.0.i.neg
  %54 = sitofp i64 %53 to double
  %55 = fdiv double %54, 1.000000e+06
  call void (i32, ptr, ...) @Abc_Print(i32 poison, ptr noundef nonnull @.str.13, double noundef %55)
  ret void
}